; Function Attrs: mustprogress nounwind willreturn uwtable
define void @Fra_ObjAddToFrontier(ptr noundef captures(none) %0, ptr noundef %1, ptr noundef captures(none) %2) local_unnamed_addr #5 {
  %4 = getelementptr i8, ptr %1, i64 36
  %.val = load i32, ptr %4, align 4, !tbaa !3
  %5 = getelementptr i8, ptr %1, i64 40
  %.val9 = load ptr, ptr %5, align 8, !tbaa !10
  %6 = getelementptr i8, ptr %.val9, i64 152
  %.val9.val = load ptr, ptr %6, align 8, !tbaa !11
  %7 = sext i32 %.val to i64
  %8 = getelementptr inbounds i32, ptr %.val9.val, i64 %7
  %9 = load i32, ptr %8, align 4, !tbaa !25
  %.not = icmp eq i32 %9, 0
  br i1 %.not, label %10, label %54

10:                                               ; preds = %3
  %11 = getelementptr i8, ptr %1, i64 24
  %.val10 = load i64, ptr %11, align 8
  %12 = and i64 %.val10, 7
  %.not14 = icmp eq i64 %12, 1
  br i1 %.not14, label %54, label %13

13:                                               ; preds = %10
  %14 = getelementptr inbounds nuw i8, ptr %0, i64 112
  %15 = load i32, ptr %14, align 8, !tbaa !39
  %16 = add nsw i32 %15, 1
  store i32 %16, ptr %14, align 8, !tbaa !39
  %.val12 = load ptr, ptr %5, align 8, !tbaa !10
  %17 = getelementptr i8, ptr %.val12, i64 152
  %.val12.val = load ptr, ptr %17, align 8, !tbaa !11
  %18 = getelementptr inbounds i32, ptr %.val12.val, i64 %7
  store i32 %15, ptr %18, align 4, !tbaa !25
  %.val13 = load i64, ptr %11, align 8
  %19 = trunc i64 %.val13 to i32
  %20 = and i32 %19, 7
  %21 = add nsw i32 %20, -7
  %narrow.i = icmp ult i32 %21, -2
  br i1 %narrow.i, label %54, label %22

22:                                               ; preds = %13
  %23 = getelementptr inbounds nuw i8, ptr %2, i64 4
  %24 = load i32, ptr %23, align 4, !tbaa !28
  %25 = load i32, ptr %2, align 8, !tbaa !38
  %26 = icmp eq i32 %24, %25
  br i1 %26, label %27, label %.Vec_PtrGrow.exit11_crit_edge.i

.Vec_PtrGrow.exit11_crit_edge.i:                  ; preds = %22
  %.phi.trans.insert.i = getelementptr inbounds nuw i8, ptr %2, i64 8
  %.pre.i = load ptr, ptr %.phi.trans.insert.i, align 8, !tbaa !30
  br label %Vec_PtrPush.exit

27:                                               ; preds = %22
  %28 = icmp slt i32 %24, 16
  br i1 %28, label %29, label %37

29:                                               ; preds = %27
  %30 = getelementptr inbounds nuw i8, ptr %2, i64 8
  %31 = load ptr, ptr %30, align 8, !tbaa !30
  %.not9.i.i = icmp eq ptr %31, null
  br i1 %.not9.i.i, label %34, label %32

32:                                               ; preds = %29
  %33 = tail call dereferenceable_or_null(128) ptr @realloc(ptr noundef nonnull %31, i64 noundef 128) #9
  br label %Vec_PtrGrow.exit.i

34:                                               ; preds = %29
  %35 = tail call noalias dereferenceable_or_null(128) ptr @malloc(i64 noundef 128) #8
  br label %Vec_PtrGrow.exit.i

Vec_PtrGrow.exit.i:                               ; preds = %34, %32
  %36 = phi ptr [ %33, %32 ], [ %35, %34 ]
  store ptr %36, ptr %30, align 8, !tbaa !30
  store i32 16, ptr %2, align 8, !tbaa !38
  br label %Vec_PtrPush.exit

37:                                               ; preds = %27
  %38 = shl nuw nsw i32 %24, 1
  %39 = getelementptr inbounds nuw i8, ptr %2, i64 8
  %40 = load ptr, ptr %39, align 8, !tbaa !30
  %.not9.i10.i = icmp eq ptr %40, null
  %41 = zext nneg i32 %38 to i64
  %42 = shl nuw nsw i64 %41, 3
  br i1 %.not9.i10.i, label %45, label %43

43:                                               ; preds = %37
  %44 = tail call ptr @realloc(ptr noundef nonnull %40, i64 noundef %42) #9
  br label %47

45:                                               ; preds = %37
  %46 = tail call noalias ptr @malloc(i64 noundef %42) #8
  br label %47

47:                                               ; preds = %45, %43
  %48 = phi ptr [ %44, %43 ], [ %46, %45 ]
  store ptr %48, ptr %39, align 8, !tbaa !30
  store i32 %38, ptr %2, align 8, !tbaa !38
  br label %Vec_PtrPush.exit

Vec_PtrPush.exit:                                 ; preds = %.Vec_PtrGrow.exit11_crit_edge.i, %Vec_PtrGrow.exit.i, %47
  %49 = phi ptr [ %.pre.i, %.Vec_PtrGrow.exit11_crit_edge.i ], [ %48, %47 ], [ %36, %Vec_PtrGrow.exit.i ]
  %50 = load i32, ptr %23, align 4, !tbaa !28
  %51 = add nsw i32 %50, 1
  store i32 %51, ptr %23, align 4, !tbaa !28
  %52 = sext i32 %50 to i64
  %53 = getelementptr inbounds ptr, ptr %49, i64 %52
  store ptr %1, ptr %53, align 8, !tbaa !31
  br label %54

54:                                               ; preds = %10, %3, %Vec_PtrPush.exit, %13
  ret void
}